target datalayout = "e-m:e-p270:32:32-p271:32:32-p272:64:64-i64:64-i128:128-f80:128-n8:16:32:64-S128"
target triple = "x86_64-pc-linux-gnu"

%"class.std::vector.27" = type { %"struct.std::_Vector_base.28" }
%"struct.std::_Vector_base.28" = type { %"struct.std::_Vector_base<const Expression *, std::allocator<const Expression *>>::_Vector_impl" }
%"struct.std::_Vector_base<const Expression *, std::allocator<const Expression *>>::_Vector_impl" = type { %"struct.std::_Vector_base<const Expression *, std::allocator<const Expression *>>::_Vector_impl_data" }
%"struct.std::_Vector_base<const Expression *, std::allocator<const Expression *>>::_Vector_impl_data" = type { ptr, ptr, ptr }
%class.ExpressionVariable = type { %class.Expression, ptr, ptr }
%class.Expression = type { ptr, i32, i32, ptr }
%class.FunctionInvocation = type { ptr, i32, %"class.std::vector.27", i8, i8, ptr }

@_ZTI10Expression = external constant ptr
@_ZTI17ExpressionFuncall = external constant ptr

; Function Attrs: mustprogress nounwind uwtable
define linkonce_odr dso_local noundef nonnull align 8 dereferenceable(8) ptr @_ZNKSt6vectorIPK10ExpressionSaIS2_EEixEm(ptr noundef nonnull align 8 dereferenceable(24) %0, i64 noundef %1) #5 comdat align 2 {
  %3 = alloca ptr, align 8
  %4 = alloca i64, align 8
  store ptr %0, ptr %3, align 8
  store i64 %1, ptr %4, align 8
  %5 = load ptr, ptr %3, align 8
  %6 = getelementptr inbounds %"struct.std::_Vector_base.28", ptr %5, i32 0, i32 0
  %7 = getelementptr inbounds %"struct.std::_Vector_base<const Expression *, std::allocator<const Expression *>>::_Vector_impl_data", ptr %6, i32 0, i32 0
  %8 = load ptr, ptr %7, align 8
  %9 = load i64, ptr %4, align 8
  %10 = getelementptr inbounds ptr, ptr %8, i64 %9
  ret ptr %10
}

; Function Attrs: mustprogress nounwind uwtable
define linkonce_odr dso_local noundef i64 @_ZNKSt6vectorIPK10ExpressionSaIS2_EE4sizeEv(ptr noundef nonnull align 8 dereferenceable(24) %0) #5 comdat align 2 {
  %2 = alloca ptr, align 8
  store ptr %0, ptr %2, align 8
  %3 = load ptr, ptr %2, align 8
  %4 = getelementptr inbounds %"struct.std::_Vector_base.28", ptr %3, i32 0, i32 0
  %5 = getelementptr inbounds %"struct.std::_Vector_base<const Expression *, std::allocator<const Expression *>>::_Vector_impl_data", ptr %4, i32 0, i32 1
  %6 = load ptr, ptr %5, align 8
  %7 = getelementptr inbounds %"struct.std::_Vector_base.28", ptr %3, i32 0, i32 0
  %8 = getelementptr inbounds %"struct.std::_Vector_base<const Expression *, std::allocator<const Expression *>>::_Vector_impl_data", ptr %7, i32 0, i32 0
  %9 = load ptr, ptr %8, align 8
  %10 = ptrtoint ptr %6 to i64
  %11 = ptrtoint ptr %9 to i64
  %12 = sub i64 %10, %11
  %13 = sdiv exact i64 %12, 8
  ret i64 %13
}

; Function Attrs: mustprogress nounwind uwtable
define linkonce_odr dso_local noundef ptr @_ZNK18ExpressionVariable7get_varEv(ptr noundef nonnull align 8 dereferenceable(40) %0) #5 comdat align 2 {
  %2 = alloca ptr, align 8
  store ptr %0, ptr %2, align 8
  %3 = load ptr, ptr %2, align 8
  %4 = getelementptr inbounds %class.ExpressionVariable, ptr %3, i32 0, i32 1
  %5 = load ptr, ptr %4, align 8
  ret ptr %5
}

; Function Attrs: mustprogress uwtable
define internal noundef ptr @_ZL17find_expr_key_varPK10Expression(ptr noundef %0) #4 {
  %2 = alloca ptr, align 8
  %3 = alloca ptr, align 8
  %4 = alloca ptr, align 8
  %5 = alloca ptr, align 8
  %6 = alloca ptr, align 8
  %7 = alloca ptr, align 8
  store ptr %0, ptr %3, align 8
  %8 = load ptr, ptr %3, align 8
  %9 = getelementptr inbounds %class.Expression, ptr %8, i32 0, i32 1
  %10 = load i32, ptr %9, align 8
  %11 = icmp eq i32 %10, 1
  br i1 %11, label %12, label %15

12:                                               ; preds = %1
  %13 = load ptr, ptr %3, align 8
  %14 = call noundef ptr @_ZNK18ExpressionVariable7get_varEv(ptr noundef nonnull align 8 dereferenceable(40) %13)
  store ptr %14, ptr %2, align 8
  br label %83

15:                                               ; preds = %1
  %16 = load ptr, ptr %3, align 8
  %17 = getelementptr inbounds %class.Expression, ptr %16, i32 0, i32 1
  %18 = load i32, ptr %17, align 8
  %19 = icmp eq i32 %18, 2
  br i1 %19, label %20, label %81

20:                                               ; preds = %15
  %21 = load ptr, ptr %3, align 8
  %22 = icmp eq ptr %21, null
  br i1 %22, label %25, label %23

23:                                               ; preds = %20
  %24 = call ptr @__dynamic_cast(ptr %21, ptr @_ZTI10Expression, ptr @_ZTI17ExpressionFuncall, i64 0) #3
  br label %26

25:                                               ; preds = %20
  br label %26

26:                                               ; preds = %25, %23
  %27 = phi ptr [ %24, %23 ], [ null, %25 ]
  store ptr %27, ptr %4, align 8
  %28 = load ptr, ptr %4, align 8
  %29 = load ptr, ptr %28, align 8
  %30 = getelementptr inbounds ptr, ptr %29, i64 7
  %31 = load ptr, ptr %30, align 8
  %32 = call noundef ptr %31(ptr noundef nonnull align 8 dereferenceable(32) %28)
  store ptr %32, ptr %5, align 8
  %33 = load ptr, ptr %5, align 8
  %34 = getelementptr inbounds %class.FunctionInvocation, ptr %33, i32 0, i32 1
  %35 = load i32, ptr %34, align 8
  %36 = icmp eq i32 %35, 0
  br i1 %36, label %42, label %37

37:                                               ; preds = %26
  %38 = load ptr, ptr %5, align 8
  %39 = getelementptr inbounds %class.FunctionInvocation, ptr %38, i32 0, i32 1
  %40 = load i32, ptr %39, align 8
  %41 = icmp eq i32 %40, 1
  br i1 %41, label %42, label %80

42:                                               ; preds = %37, %26
  %43 = load ptr, ptr %5, align 8
  %44 = getelementptr inbounds %class.FunctionInvocation, ptr %43, i32 0, i32 2
  %45 = call noundef i64 @_ZNKSt6vectorIPK10ExpressionSaIS2_EE4sizeEv(ptr noundef nonnull align 8 dereferenceable(24) %44) #3
  %46 = icmp eq i64 %45, 1
  br i1 %46, label %47, label %53

47:                                               ; preds = %42
  %48 = load ptr, ptr %5, align 8
  %49 = getelementptr inbounds %class.FunctionInvocation, ptr %48, i32 0, i32 2
  %50 = call noundef nonnull align 8 dereferenceable(8) ptr @_ZNKSt6vectorIPK10ExpressionSaIS2_EEixEm(ptr noundef nonnull align 8 dereferenceable(24) %49, i64 noundef 0) #3
  %51 = load ptr, ptr %50, align 8
  %52 = call noundef ptr @_ZL17find_expr_key_varPK10Expression(ptr noundef %51)
  store ptr %52, ptr %2, align 8
  br label %83

53:                                               ; preds = %42
  %54 = load ptr, ptr %5, align 8
  %55 = getelementptr inbounds %class.FunctionInvocation, ptr %54, i32 0, i32 2
  %56 = call noundef nonnull align 8 dereferenceable(8) ptr @_ZNKSt6vectorIPK10ExpressionSaIS2_EEixEm(ptr noundef nonnull align 8 dereferenceable(24) %55, i64 noundef 0) #3
  %57 = load ptr, ptr %56, align 8
  %58 = call noundef ptr @_ZL17find_expr_key_varPK10Expression(ptr noundef %57)
  store ptr %58, ptr %6, align 8
  %59 = load ptr, ptr %5, align 8
  %60 = getelementptr inbounds %class.FunctionInvocation, ptr %59, i32 0, i32 2
  %61 = call noundef nonnull align 8 dereferenceable(8) ptr @_ZNKSt6vectorIPK10ExpressionSaIS2_EEixEm(ptr noundef nonnull align 8 dereferenceable(24) %60, i64 noundef 1) #3
  %62 = load ptr, ptr %61, align 8
  %63 = call noundef ptr @_ZL17find_expr_key_varPK10Expression(ptr noundef %62)
  store ptr %63, ptr %7, align 8
  %64 = load ptr, ptr %6, align 8
  %65 = icmp eq ptr %64, null
  br i1 %65, label %66, label %71

66:                                               ; preds = %53
  %67 = load ptr, ptr %7, align 8
  %68 = icmp ne ptr %67, null
  br i1 %68, label %69, label %71

69:                                               ; preds = %66
  %70 = load ptr, ptr %7, align 8
  store ptr %70, ptr %2, align 8
  br label %83

71:                                               ; preds = %66, %53
  %72 = load ptr, ptr %6, align 8
  %73 = icmp ne ptr %72, null
  br i1 %73, label %74, label %79

74:                                               ; preds = %71
  %75 = load ptr, ptr %7, align 8
  %76 = icmp eq ptr %75, null
  br i1 %76, label %77, label %79

77:                                               ; preds = %74
  %78 = load ptr, ptr %6, align 8
  store ptr %78, ptr %2, align 8
  br label %83

79:                                               ; preds = %74, %71
  br label %80

80:                                               ; preds = %79, %37
  br label %81

81:                                               ; preds = %80, %15
  br label %82

82:                                               ; preds = %81
  store ptr null, ptr %2, align 8
  br label %83

83:                                               ; preds = %82, %77, %69, %47, %12
  %84 = load ptr, ptr %2, align 8
  ret ptr %84
}