; Function Attrs: mustprogress uwtable
define internal fastcc noundef ptr @_ZL17find_expr_key_varPK10Expression(ptr noundef %0) unnamed_addr #3 {
  br label %tailrecurse

tailrecurse:                                      ; preds = %24, %1
  %.tr = phi ptr [ %0, %1 ], [ %25, %24 ]
  %2 = getelementptr inbounds i8, ptr %.tr, i64 8
  %3 = load i32, ptr %2, align 8
  switch i32 %3, label %.loopexit [
    i32 1, label %4
    i32 2, label %7
  ]

4:                                                ; preds = %tailrecurse
  %5 = getelementptr inbounds i8, ptr %.tr, i64 24
  %6 = load ptr, ptr %5, align 8
  br label %39

7:                                                ; preds = %tailrecurse
  %8 = tail call ptr @__dynamic_cast(ptr nonnull %.tr, ptr nonnull @_ZTI10Expression, ptr nonnull @_ZTI17ExpressionFuncall, i64 0) #19
  %9 = load ptr, ptr %8, align 8
  %10 = getelementptr inbounds i8, ptr %9, i64 56
  %11 = load ptr, ptr %10, align 8
  %12 = tail call noundef ptr %11(ptr noundef nonnull align 8 dereferenceable(32) %8)
  %13 = getelementptr inbounds i8, ptr %12, i64 8
  %14 = load i32, ptr %13, align 8
  %switch = icmp ult i32 %14, 2
  br i1 %switch, label %15, label %.loopexit

15:                                               ; preds = %7
  %16 = getelementptr inbounds i8, ptr %12, i64 16
  %17 = getelementptr inbounds i8, ptr %12, i64 24
  %18 = load ptr, ptr %17, align 8
  %19 = load ptr, ptr %16, align 8
  %20 = ptrtoint ptr %18 to i64
  %21 = ptrtoint ptr %19 to i64
  %22 = sub i64 %20, %21
  %23 = icmp eq i64 %22, 8
  br i1 %23, label %24, label %26

24:                                               ; preds = %15
  %25 = load ptr, ptr %19, align 8
  br label %tailrecurse

26:                                               ; preds = %15
  %27 = getelementptr inbounds i8, ptr %12, i64 16
  %28 = load ptr, ptr %19, align 8
  %29 = tail call fastcc noundef ptr @_ZL17find_expr_key_varPK10Expression(ptr noundef %28)
  %30 = load ptr, ptr %27, align 8
  %31 = getelementptr inbounds i8, ptr %30, i64 8
  %32 = load ptr, ptr %31, align 8
  %33 = tail call fastcc noundef ptr @_ZL17find_expr_key_varPK10Expression(ptr noundef %32)
  %34 = icmp eq ptr %29, null
  %35 = icmp ne ptr %33, null
  %or.cond = and i1 %34, %35
  br i1 %or.cond, label %39, label %36

36:                                               ; preds = %26
  %37 = icmp ne ptr %29, null
  %38 = icmp eq ptr %33, null
  %or.cond3 = and i1 %37, %38
  br i1 %or.cond3, label %39, label %.loopexit

.loopexit:                                        ; preds = %7, %tailrecurse, %36
  br label %39

39:                                               ; preds = %36, %26, %.loopexit, %4
  %.0 = phi ptr [ %6, %4 ], [ null, %.loopexit ], [ %33, %26 ], [ %29, %36 ]
  ret ptr %.0
}